target datalayout = "e-m:e-p270:32:32-p271:32:32-p272:64:64-i64:64-i128:128-f80:128-n8:16:32:64-S128"
target triple = "x86_64-pc-linux-gnu"

%struct.ParallelContext = type { %struct.dlist_node, i32, i32, i32, i32, ptr, ptr, ptr, %struct.shm_toc_estimator, ptr, ptr, ptr, ptr, i32, ptr }
%struct.dlist_node = type { ptr, ptr }
%struct.shm_toc_estimator = type { i64, i64 }

; Function Attrs: nounwind uwtable
define dso_local void @ExecHashJoinEstimate(ptr noundef %0, ptr noundef %1) #0 {
  %3 = alloca ptr, align 8
  %4 = alloca ptr, align 8
  store ptr %0, ptr %3, align 8
  store ptr %1, ptr %4, align 8
  %5 = load ptr, ptr %4, align 8
  %6 = getelementptr inbounds nuw %struct.ParallelContext, ptr %5, i32 0, i32 8
  %7 = getelementptr inbounds nuw %struct.shm_toc_estimator, ptr %6, i32 0, i32 0
  %8 = load i64, ptr %7, align 8
  %9 = call i64 @add_size(i64 noundef %8, i64 noundef 256)
  %10 = load ptr, ptr %4, align 8
  %11 = getelementptr inbounds nuw %struct.ParallelContext, ptr %10, i32 0, i32 8
  %12 = getelementptr inbounds nuw %struct.shm_toc_estimator, ptr %11, i32 0, i32 0
  store i64 %9, ptr %12, align 8
  %13 = load ptr, ptr %4, align 8
  %14 = getelementptr inbounds nuw %struct.ParallelContext, ptr %13, i32 0, i32 8
  %15 = getelementptr inbounds nuw %struct.shm_toc_estimator, ptr %14, i32 0, i32 1
  %16 = load i64, ptr %15, align 8
  %17 = call i64 @add_size(i64 noundef %16, i64 noundef 1)
  %18 = load ptr, ptr %4, align 8
  %19 = getelementptr inbounds nuw %struct.ParallelContext, ptr %18, i32 0, i32 8
  %20 = getelementptr inbounds nuw %struct.shm_toc_estimator, ptr %19, i32 0, i32 1
  store i64 %17, ptr %20, align 8
  ret void
}