; Function Attrs: nounwind uwtable
define dso_local void @ExecHashJoinEstimate(ptr noundef readnone captures(none) %0, ptr noundef captures(none) %1) local_unnamed_addr #0 {
  %3 = getelementptr inbounds nuw i8, ptr %1, i64 56
  %4 = load i64, ptr %3, align 8
  %5 = tail call i64 @add_size(i64 noundef %4, i64 noundef 256) #6
  store i64 %5, ptr %3, align 8
  %6 = getelementptr inbounds nuw i8, ptr %1, i64 64
  %7 = load i64, ptr %6, align 8
  %8 = tail call i64 @add_size(i64 noundef %7, i64 noundef 1) #6
  store i64 %8, ptr %6, align 8
  ret void
}